; Function Attrs: nounwind uwtable
define dso_local void @list_free_deep(ptr noundef %0) local_unnamed_addr #0 {
  %2 = icmp eq ptr %0, null
  br i1 %2, label %list_free_private.exit, label %3

3:                                                ; preds = %1
  %4 = getelementptr inbounds nuw i8, ptr %0, i64 4
  %5 = load i32, ptr %4, align 4
  %6 = icmp sgt i32 %5, 0
  br i1 %6, label %.lr.ph.i, label %.loopexit.i

.lr.ph.i:                                         ; preds = %3
  %7 = getelementptr inbounds nuw i8, ptr %0, i64 16
  br label %8

8:                                                ; preds = %8, %.lr.ph.i
  %indvars.iv.i = phi i64 [ 0, %.lr.ph.i ], [ %indvars.iv.next.i, %8 ]
  %9 = load ptr, ptr %7, align 8
  %10 = getelementptr inbounds nuw %union.ListCell, ptr %9, i64 %indvars.iv.i
  %11 = load ptr, ptr %10, align 8
  tail call void @pfree(ptr noundef %11) #9
  %indvars.iv.next.i = add nuw nsw i64 %indvars.iv.i, 1
  %12 = load i32, ptr %4, align 4
  %13 = sext i32 %12 to i64
  %14 = icmp slt i64 %indvars.iv.next.i, %13
  br i1 %14, label %8, label %.loopexit.i, !llvm.loop !9

.loopexit.i:                                      ; preds = %8, %3
  %15 = getelementptr inbounds nuw i8, ptr %0, i64 16
  %16 = load ptr, ptr %15, align 8
  %17 = getelementptr inbounds nuw i8, ptr %0, i64 24
  %.not.i = icmp eq ptr %16, %17
  br i1 %.not.i, label %19, label %18

18:                                               ; preds = %.loopexit.i
  tail call void @pfree(ptr noundef %16) #9
  br label %19

19:                                               ; preds = %18, %.loopexit.i
  tail call void @pfree(ptr noundef nonnull %0) #9
  br label %list_free_private.exit

list_free_private.exit:                           ; preds = %1, %19
  ret void
}